; Function Attrs: nofree norecurse nosync nounwind memory(readwrite, inaccessiblemem: none) uwtable
define void @Abc_NtkRetimeTranferFromCopy(ptr noundef readonly captures(none) %0) local_unnamed_addr #5 {
  %2 = getelementptr inbounds nuw i8, ptr %0, i64 32
  %3 = load ptr, ptr %2, align 8, !tbaa !45
  %4 = getelementptr i8, ptr %3, i64 4
  %.val12 = load i32, ptr %4, align 4, !tbaa !34
  %5 = icmp sgt i32 %.val12, 0
  br i1 %5, label %.lr.ph, label %.critedge

.lr.ph:                                           ; preds = %1, %19
  %6 = phi ptr [ %20, %19 ], [ %3, %1 ]
  %indvars.iv = phi i64 [ %indvars.iv.next, %19 ], [ 0, %1 ]
  %7 = getelementptr i8, ptr %6, i64 8
  %.val10.val = load ptr, ptr %7, align 8, !tbaa !36
  %8 = getelementptr inbounds nuw ptr, ptr %.val10.val, i64 %indvars.iv
  %9 = load ptr, ptr %8, align 8, !tbaa !37
  %10 = icmp eq ptr %9, null
  br i1 %10, label %19, label %11

11:                                               ; preds = %.lr.ph
  %12 = getelementptr i8, ptr %9, i64 20
  %.val11 = load i32, ptr %12, align 4
  %13 = and i32 %.val11, 15
  %.not = icmp eq i32 %13, 8
  br i1 %.not, label %14, label %19

14:                                               ; preds = %11
  %15 = getelementptr inbounds nuw i8, ptr %9, i64 64
  %16 = load ptr, ptr %15, align 8, !tbaa !38
  %.not9 = icmp eq ptr %16, null
  %17 = select i1 %.not9, ptr inttoptr (i64 1 to ptr), ptr inttoptr (i64 2 to ptr)
  %18 = getelementptr inbounds nuw i8, ptr %9, i64 56
  store ptr %17, ptr %18, align 8, !tbaa !38
  %.pre = load ptr, ptr %2, align 8, !tbaa !45
  br label %19

19:                                               ; preds = %.lr.ph, %14, %11
  %20 = phi ptr [ %6, %.lr.ph ], [ %.pre, %14 ], [ %6, %11 ]
  %indvars.iv.next = add nuw nsw i64 %indvars.iv, 1
  %21 = getelementptr i8, ptr %20, i64 4
  %.val = load i32, ptr %21, align 4, !tbaa !34
  %22 = sext i32 %.val to i64
  %23 = icmp slt i64 %indvars.iv.next, %22
  br i1 %23, label %.lr.ph, label %.critedge, !llvm.loop !58

.critedge:                                        ; preds = %19, %1
  ret void
}